target datalayout = "e-m:e-p270:32:32-p271:32:32-p272:64:64-i64:64-i128:128-f80:128-n8:16:32:64-S128"
target triple = "x86_64-pc-linux-gnu"

%struct.Aig_Man_t_ = type { ptr, ptr, ptr, ptr, ptr, ptr, ptr, %struct.Aig_Obj_t_, i32, i32, i32, i32, i32, i32, [7 x i32], i32, ptr, i32, ptr, i32, ptr, i32, i32, i32, ptr, i32, i32, i32, i32, i32, ptr, ptr, i32, ptr, ptr, i32, ptr, ptr, i32, i32, i32, ptr, ptr, ptr, ptr, ptr, ptr, ptr, ptr, ptr, ptr, ptr, ptr, ptr, ptr, i32, ptr, ptr, ptr, ptr, i32, i64, i64, i64, ptr, ptr }
%struct.Aig_Obj_t_ = type { %union.anon, ptr, ptr, i64, i32, i32, %union.anon.0 }
%union.anon = type { ptr }
%union.anon.0 = type { ptr }

@.str.5 = private unnamed_addr constant [37 x i8] c"Current CEX does not fail AIG \22%s\22.\0A\00", align 1

; Function Attrs: nounwind uwtable
define ptr @Bmc_AigTargetStates(ptr noundef %0, ptr noundef %1, i32 noundef %2, i32 noundef %3, i32 noundef %4, i32 noundef %5, i32 noundef %6, i32 noundef %7) #0 {
  %9 = alloca ptr, align 8
  %10 = alloca ptr, align 8
  %11 = alloca ptr, align 8
  %12 = alloca i32, align 4
  %13 = alloca i32, align 4
  %14 = alloca i32, align 4
  %15 = alloca i32, align 4
  %16 = alloca i32, align 4
  %17 = alloca i32, align 4
  %18 = alloca ptr, align 8
  %19 = alloca ptr, align 8
  %20 = alloca ptr, align 8
  store ptr %0, ptr %10, align 8
  store ptr %1, ptr %11, align 8
  store i32 %2, ptr %12, align 4
  store i32 %3, ptr %13, align 4
  store i32 %4, ptr %14, align 4
  store i32 %5, ptr %15, align 4
  store i32 %6, ptr %16, align 4
  store i32 %7, ptr %17, align 4
  %21 = load ptr, ptr %10, align 8
  %22 = call ptr @Gia_ManFromAigSimple(ptr noundef %21)
  store ptr %22, ptr %19, align 8
  %23 = load ptr, ptr %19, align 8
  %24 = load ptr, ptr %11, align 8
  %25 = call i32 @Gia_ManVerifyCex(ptr noundef %23, ptr noundef %24, i32 noundef 0)
  %26 = icmp ne i32 %25, 0
  br i1 %26, label %32, label %27

27:                                               ; preds = %8
  %28 = load ptr, ptr %10, align 8
  %29 = getelementptr inbounds %struct.Aig_Man_t_, ptr %28, i32 0, i32 0
  %30 = load ptr, ptr %29, align 8
  call void (i32, ptr, ...) @Abc_Print(i32 noundef 1, ptr noundef @.str.5, ptr noundef %30)
  %31 = load ptr, ptr %19, align 8
  call void @Gia_ManStop(ptr noundef %31)
  store ptr null, ptr %9, align 8
  br label %47

32:                                               ; preds = %8
  %33 = load ptr, ptr %19, align 8
  %34 = load ptr, ptr %11, align 8
  %35 = load i32, ptr %12, align 4
  %36 = load i32, ptr %13, align 4
  %37 = load i32, ptr %14, align 4
  %38 = load i32, ptr %15, align 4
  %39 = load i32, ptr %16, align 4
  %40 = load i32, ptr %17, align 4
  %41 = call ptr @Bmc_GiaTargetStates(ptr noundef %33, ptr noundef %34, i32 noundef %35, i32 noundef %36, i32 noundef %37, i32 noundef %38, i32 noundef %39, i32 noundef %40)
  store ptr %41, ptr %20, align 8
  %42 = load ptr, ptr %19, align 8
  call void @Gia_ManStop(ptr noundef %42)
  %43 = load ptr, ptr %20, align 8
  %44 = call ptr @Gia_ManToAigSimple(ptr noundef %43)
  store ptr %44, ptr %18, align 8
  %45 = load ptr, ptr %20, align 8
  call void @Gia_ManStop(ptr noundef %45)
  %46 = load ptr, ptr %18, align 8
  store ptr %46, ptr %9, align 8
  br label %47

47:                                               ; preds = %32, %27
  %48 = load ptr, ptr %9, align 8
  ret ptr %48
}