; Function Attrs: nounwind uwtable
define ptr @Bmc_AigTargetStates(ptr noundef %0, ptr noundef %1, i32 noundef %2, i32 noundef %3, i32 noundef %4, i32 noundef %5, i32 noundef %6, i32 noundef %7) local_unnamed_addr #2 {
  %9 = tail call ptr @Gia_ManFromAigSimple(ptr noundef %0) #16
  %10 = tail call i32 @Gia_ManVerifyCex(ptr noundef %9, ptr noundef %1, i32 noundef 0) #16
  %.not = icmp eq i32 %10, 0
  br i1 %.not, label %11, label %13

11:                                               ; preds = %8
  %12 = load ptr, ptr %0, align 8
  tail call void (i32, ptr, ...) @Abc_Print(i32 poison, ptr nonnull poison, ptr noundef %12)
  br label %16

13:                                               ; preds = %8
  %14 = tail call ptr @Bmc_GiaTargetStates(ptr noundef %9, ptr noundef %1, i32 noundef %2, i32 noundef %3, i32 noundef %4, i32 noundef %5, i32 noundef %6, i32 poison)
  tail call void @Gia_ManStop(ptr noundef %9) #16
  %15 = tail call ptr @Gia_ManToAigSimple(ptr noundef %14) #16
  br label %16

16:                                               ; preds = %13, %11
  %.sink = phi ptr [ %14, %13 ], [ %9, %11 ]
  %.0 = phi ptr [ %15, %13 ], [ null, %11 ]
  tail call void @Gia_ManStop(ptr noundef %.sink) #16
  ret ptr %.0
}